target datalayout = "e-m:e-p270:32:32-p271:32:32-p272:64:64-i64:64-i128:128-f80:128-n8:16:32:64-S128"
target triple = "x86_64-pc-linux-gnu"

%struct.ImGuiTableSettings = type <{ i32, i32, float, i16, i16, i8, [3 x i8] }>
%struct.ImGuiTableColumnSettings = type <{ float, i32, i16, i16, i16, i8, i8 }>

@.str.32 = private unnamed_addr constant [29 x i8] c"Settings 0x%08X (%d columns)\00", align 1
@.str.33 = private unnamed_addr constant [18 x i8] c"SaveFlags: 0x%08X\00", align 1
@.str.34 = private unnamed_addr constant [26 x i8] c"ColumnsCount: %d (max %d)\00", align 1
@.str.35 = private unnamed_addr constant [65 x i8] c"Column %d Order %d SortOrder %d %s Vis %d %s %7.3f UserID 0x%08X\00", align 1
@.str.36 = private unnamed_addr constant [4 x i8] c"Asc\00", align 1
@.str.37 = private unnamed_addr constant [4 x i8] c"Des\00", align 1
@.str.38 = private unnamed_addr constant [4 x i8] c"---\00", align 1
@.str.39 = private unnamed_addr constant [7 x i8] c"Weight\00", align 1
@.str.40 = private unnamed_addr constant [7 x i8] c"Width \00", align 1

; Function Attrs: mustprogress nounwind uwtable
define linkonce_odr dso_local noundef ptr @_ZN18ImGuiTableSettings17GetColumnSettingsEv(ptr noundef nonnull align 4 dereferenceable(17) %0) #7 comdat align 2 {
  %2 = alloca ptr, align 8
  store ptr %0, ptr %2, align 8, !tbaa !358
  %3 = load ptr, ptr %2, align 8
  %4 = getelementptr inbounds %struct.ImGuiTableSettings, ptr %3, i64 1
  ret ptr %4
}

; Function Attrs: mustprogress uwtable
define dso_local void @_ZN5ImGui22DebugNodeTableSettingsEP18ImGuiTableSettings(ptr noundef %0) #0 {
  %2 = alloca ptr, align 8
  %3 = alloca i32, align 4
  %4 = alloca ptr, align 8
  %5 = alloca i8, align 1
  store ptr %0, ptr %2, align 8, !tbaa !358
  %6 = load ptr, ptr %2, align 8, !tbaa !358
  %7 = getelementptr inbounds nuw %struct.ImGuiTableSettings, ptr %6, i32 0, i32 0
  %8 = load i32, ptr %7, align 4, !tbaa !646
  %9 = zext i32 %8 to i64
  %10 = inttoptr i64 %9 to ptr
  %11 = load ptr, ptr %2, align 8, !tbaa !358
  %12 = getelementptr inbounds nuw %struct.ImGuiTableSettings, ptr %11, i32 0, i32 0
  %13 = load i32, ptr %12, align 4, !tbaa !646
  %14 = load ptr, ptr %2, align 8, !tbaa !358
  %15 = getelementptr inbounds nuw %struct.ImGuiTableSettings, ptr %14, i32 0, i32 3
  %16 = load i16, ptr %15, align 4, !tbaa !360
  %17 = sext i16 %16 to i32
  %18 = call noundef zeroext i1 (ptr, ptr, ...) @_ZN5ImGui8TreeNodeEPKvPKcz(ptr noundef %10, ptr noundef @.str.32, i32 noundef %13, i32 noundef %17)
  br i1 %18, label %20, label %19

19:                                               ; preds = %1
  br label %111

20:                                               ; preds = %1
  %21 = load ptr, ptr %2, align 8, !tbaa !358
  %22 = getelementptr inbounds nuw %struct.ImGuiTableSettings, ptr %21, i32 0, i32 1
  %23 = load i32, ptr %22, align 4, !tbaa !362
  call void (ptr, ...) @_ZN5ImGui10BulletTextEPKcz(ptr noundef @.str.33, i32 noundef %23)
  %24 = load ptr, ptr %2, align 8, !tbaa !358
  %25 = getelementptr inbounds nuw %struct.ImGuiTableSettings, ptr %24, i32 0, i32 3
  %26 = load i16, ptr %25, align 4, !tbaa !360
  %27 = sext i16 %26 to i32
  %28 = load ptr, ptr %2, align 8, !tbaa !358
  %29 = getelementptr inbounds nuw %struct.ImGuiTableSettings, ptr %28, i32 0, i32 4
  %30 = load i16, ptr %29, align 2, !tbaa !647
  %31 = sext i16 %30 to i32
  call void (ptr, ...) @_ZN5ImGui10BulletTextEPKcz(ptr noundef @.str.34, i32 noundef %27, i32 noundef %31)
  call void @llvm.lifetime.start.p0(i64 4, ptr %3) #8
  store i32 0, ptr %3, align 4, !tbaa !4
  br label %32

32:                                               ; preds = %107, %20
  %33 = load i32, ptr %3, align 4, !tbaa !4
  %34 = load ptr, ptr %2, align 8, !tbaa !358
  %35 = getelementptr inbounds nuw %struct.ImGuiTableSettings, ptr %34, i32 0, i32 3
  %36 = load i16, ptr %35, align 4, !tbaa !360
  %37 = sext i16 %36 to i32
  %38 = icmp slt i32 %33, %37
  br i1 %38, label %40, label %39

39:                                               ; preds = %32
  call void @llvm.lifetime.end.p0(i64 4, ptr %3) #8
  br label %110

40:                                               ; preds = %32
  call void @llvm.lifetime.start.p0(i64 8, ptr %4) #8
  %41 = load ptr, ptr %2, align 8, !tbaa !358
  %42 = call noundef ptr @_ZN18ImGuiTableSettings17GetColumnSettingsEv(ptr noundef nonnull align 4 dereferenceable(17) %41)
  %43 = load i32, ptr %3, align 4, !tbaa !4
  %44 = sext i32 %43 to i64
  %45 = getelementptr inbounds %struct.ImGuiTableColumnSettings, ptr %42, i64 %44
  store ptr %45, ptr %4, align 8, !tbaa !364
  call void @llvm.lifetime.start.p0(i64 1, ptr %5) #8
  %46 = load ptr, ptr %4, align 8, !tbaa !364
  %47 = getelementptr inbounds nuw %struct.ImGuiTableColumnSettings, ptr %46, i32 0, i32 4
  %48 = load i16, ptr %47, align 4, !tbaa !372
  %49 = sext i16 %48 to i32
  %50 = icmp ne i32 %49, -1
  br i1 %50, label %51, label %56

51:                                               ; preds = %40
  %52 = load ptr, ptr %4, align 8, !tbaa !364
  %53 = getelementptr inbounds nuw %struct.ImGuiTableColumnSettings, ptr %52, i32 0, i32 5
  %54 = load i8, ptr %53, align 2
  %55 = and i8 %54, 3
  br label %57

56:                                               ; preds = %40
  br label %57

57:                                               ; preds = %56, %51
  %58 = phi i8 [ %55, %51 ], [ 0, %56 ]
  store i8 %58, ptr %5, align 1, !tbaa !593
  %59 = load i32, ptr %3, align 4, !tbaa !4
  %60 = load ptr, ptr %4, align 8, !tbaa !364
  %61 = getelementptr inbounds nuw %struct.ImGuiTableColumnSettings, ptr %60, i32 0, i32 3
  %62 = load i16, ptr %61, align 2, !tbaa !371
  %63 = sext i16 %62 to i32
  %64 = load ptr, ptr %4, align 8, !tbaa !364
  %65 = getelementptr inbounds nuw %struct.ImGuiTableColumnSettings, ptr %64, i32 0, i32 4
  %66 = load i16, ptr %65, align 4, !tbaa !372
  %67 = sext i16 %66 to i32
  %68 = load i8, ptr %5, align 1, !tbaa !593
  %69 = zext i8 %68 to i32
  %70 = icmp eq i32 %69, 1
  br i1 %70, label %71, label %72

71:                                               ; preds = %57
  br label %80

72:                                               ; preds = %57
  %73 = load i8, ptr %5, align 1, !tbaa !593
  %74 = zext i8 %73 to i32
  %75 = icmp eq i32 %74, 2
  br i1 %75, label %76, label %77

76:                                               ; preds = %72
  br label %78

77:                                               ; preds = %72
  br label %78

78:                                               ; preds = %77, %76
  %79 = phi ptr [ @.str.37, %76 ], [ @.str.38, %77 ]
  br label %80

80:                                               ; preds = %78, %71
  %81 = phi ptr [ @.str.36, %71 ], [ %79, %78 ]
  %82 = getelementptr inbounds [4 x i8], ptr %81, i64 0, i64 0
  %83 = load ptr, ptr %4, align 8, !tbaa !364
  %84 = getelementptr inbounds nuw %struct.ImGuiTableColumnSettings, ptr %83, i32 0, i32 5
  %85 = load i8, ptr %84, align 2
  %86 = lshr i8 %85, 2
  %87 = and i8 %86, 1
  %88 = zext i8 %87 to i32
  %89 = load ptr, ptr %4, align 8, !tbaa !364
  %90 = getelementptr inbounds nuw %struct.ImGuiTableColumnSettings, ptr %89, i32 0, i32 5
  %91 = load i8, ptr %90, align 2
  %92 = lshr i8 %91, 3
  %93 = and i8 %92, 1
  %94 = icmp ne i8 %93, 0
  br i1 %94, label %95, label %96

95:                                               ; preds = %80
  br label %97

96:                                               ; preds = %80
  br label %97

97:                                               ; preds = %96, %95
  %98 = phi ptr [ @.str.39, %95 ], [ @.str.40, %96 ]
  %99 = getelementptr inbounds [7 x i8], ptr %98, i64 0, i64 0
  %100 = load ptr, ptr %4, align 8, !tbaa !364
  %101 = getelementptr inbounds nuw %struct.ImGuiTableColumnSettings, ptr %100, i32 0, i32 0
  %102 = load float, ptr %101, align 4, !tbaa !369
  %103 = fpext float %102 to double
  %104 = load ptr, ptr %4, align 8, !tbaa !364
  %105 = getelementptr inbounds nuw %struct.ImGuiTableColumnSettings, ptr %104, i32 0, i32 1
  %106 = load i32, ptr %105, align 4, !tbaa !660
  call void (ptr, ...) @_ZN5ImGui10BulletTextEPKcz(ptr noundef @.str.35, i32 noundef %59, i32 noundef %63, i32 noundef %67, ptr noundef %82, i32 noundef %88, ptr noundef %99, double noundef %103, i32 noundef %106)
  call void @llvm.lifetime.end.p0(i64 1, ptr %5) #8
  call void @llvm.lifetime.end.p0(i64 8, ptr %4) #8
  br label %107

107:                                              ; preds = %97
  %108 = load i32, ptr %3, align 4, !tbaa !4
  %109 = add nsw i32 %108, 1
  store i32 %109, ptr %3, align 4, !tbaa !4
  br label %32, !llvm.loop !674

110:                                              ; preds = %39
  call void @_ZN5ImGui7TreePopEv()
  br label %111

111:                                              ; preds = %110, %19
  ret void
}